LIBRARY "GameLogic"
EXPORTS
	??0GameAPI@@QAE@ABV0@@Z = gamelogic_original.??0GameAPI@@QAE@ABV0@@Z
	??0GameAPI@@QAE@XZ = gamelogic_original.??0GameAPI@@QAE@XZ
	??0IActor@@QAE@ABV0@@Z = gamelogic_original.??0IActor@@QAE@ABV0@@Z
	??0IActor@@QAE@XZ = gamelogic_original.??0IActor@@QAE@XZ
	??0IFastTravel@@QAE@ABV0@@Z = gamelogic_original.??0IFastTravel@@QAE@ABV0@@Z
	??0IFastTravel@@QAE@XZ = gamelogic_original.??0IFastTravel@@QAE@XZ
	??0IInventory@@QAE@ABV0@@Z = gamelogic_original.??0IInventory@@QAE@ABV0@@Z
	??0IInventory@@QAE@XZ = gamelogic_original.??0IInventory@@QAE@XZ
	??0IItem@@QAE@ABV0@@Z = gamelogic_original.??0IItem@@QAE@ABV0@@Z
	??0IItem@@QAE@XZ = gamelogic_original.??0IItem@@QAE@XZ
	??0IPlayer@@QAE@ABV0@@Z = gamelogic_original.??0IPlayer@@QAE@ABV0@@Z
	??0IPlayer@@QAE@XZ = gamelogic_original.??0IPlayer@@QAE@XZ
	??0IQuest@@QAE@ABV0@@Z = gamelogic_original.??0IQuest@@QAE@ABV0@@Z
	??0IQuest@@QAE@XZ = gamelogic_original.??0IQuest@@QAE@XZ
	??0IQuestState@@QAE@ABV0@@Z = gamelogic_original.??0IQuestState@@QAE@ABV0@@Z
	??0IQuestState@@QAE@XZ = gamelogic_original.??0IQuestState@@QAE@XZ
	??1IActor@@UAE@XZ = gamelogic_original.??1IActor@@UAE@XZ
	??1IFastTravel@@UAE@XZ = gamelogic_original.??1IFastTravel@@UAE@XZ
	??1IInventory@@UAE@XZ = gamelogic_original.??1IInventory@@UAE@XZ
	??1IItem@@UAE@XZ = gamelogic_original.??1IItem@@UAE@XZ
	??4GameAPI@@QAEAAV0@ABV0@@Z = gamelogic_original.??4GameAPI@@QAEAAV0@ABV0@@Z
	??4IActor@@QAEAAV0@ABV0@@Z = gamelogic_original.??4GameAPI@@QAEAAV0@ABV0@@Z
	??4IFastTravel@@QAEAAV0@ABV0@@Z = gamelogic_original.??4GameAPI@@QAEAAV0@ABV0@@Z
	??4IInventory@@QAEAAV0@ABV0@@Z = gamelogic_original.??4GameAPI@@QAEAAV0@ABV0@@Z
	??4IItem@@QAEAAV0@ABV0@@Z = gamelogic_original.??4GameAPI@@QAEAAV0@ABV0@@Z
	??4IPlayer@@QAEAAV0@ABV0@@Z = gamelogic_original.??4GameAPI@@QAEAAV0@ABV0@@Z
	??4IQuest@@QAEAAV0@ABV0@@Z = gamelogic_original.??4GameAPI@@QAEAAV0@ABV0@@Z
	??4IQuestState@@QAEAAV0@ABV0@@Z = gamelogic_original.??4GameAPI@@QAEAAV0@ABV0@@Z
	??_7GameAPI@@6B@ = gamelogic_original.??_7GameAPI@@6B@
	??_7IActor@@6B@ = gamelogic_original.??_7IActor@@6B@
	??_7IFastTravel@@6B@ = gamelogic_original.??_7IFastTravel@@6B@
	??_7IInventory@@6B@ = gamelogic_original.??_7IInventory@@6B@
	??_7IItem@@6B@ = gamelogic_original.??_7IItem@@6B@
	??_7IPlayer@@6B@ = gamelogic_original.??_7IPlayer@@6B@
	??_7IQuest@@6B@ = gamelogic_original.??_7IQuest@@6B@
	??_7IQuestState@@6B@ = gamelogic_original.??_7IQuestState@@6B@
	?AddRef@IPlayer@@QAEXXZ = gamelogic_original.?AddRef@IPlayer@@QAEXXZ
	?ConnectToGameServer@GameAPI@@QAEXPBDGH0@Z = gamelogic_original.?ConnectToGameServer@GameAPI@@QAEXPBDGH0@Z
	?ConnectToMasterServer@GameAPI@@QAEXPBDG0@Z = gamelogic_original.?ConnectToMasterServer@GameAPI@@QAEXPBDG0@Z
	?CreateCharacter@GameAPI@@QAEXPBDEPAI@Z = gamelogic_original.?CreateCharacter@GameAPI@@QAEXPBDEPAI@Z
	?CreateRemoteActorByName@GameAPI@@QAEPAVActor@@ABV?$basic_string@DU?$char_traits@D@std@@V?$allocator@D@2@@std@@_N@Z = gamelogic_original.?CreateRemoteActorByName@GameAPI@@QAEPAVActor@@ABV?$basic_string@DU?$char_traits@D@std@@V?$allocator@D@2@@std@@_N@Z
	?CreateRemoteActorByNameWithOwner@GameAPI@@QAEPAVActor@@ABV?$basic_string@DU?$char_traits@D@std@@V?$allocator@D@2@@std@@_NPAVIActor@@@Z = gamelogic_original.?CreateRemoteActorByNameWithOwner@GameAPI@@QAEPAVActor@@ABV?$basic_string@DU?$char_traits@D@std@@V?$allocator@D@2@@std@@_NPAVIActor@@@Z
	?DeleteCharacter@GameAPI@@QAEXH@Z = gamelogic_original.?DeleteCharacter@GameAPI@@QAEXH@Z
	?DisconnectFromMasterServer@GameAPI@@QAEXXZ = gamelogic_original.?DisconnectFromMasterServer@GameAPI@@QAEXXZ
	?Enqueue@GameAPI@@QAEXABV?$function@$$A6AXXZ@std@@@Z = gamelogic_original.?Enqueue@GameAPI@@QAEXABV?$function@$$A6AXXZ@std@@@Z
	?GetAchievement@GameAPI@@QAEPAVIAchievement@@PBD@Z = gamelogic_original.?GetAchievement@GameAPI@@QAEPAVIAchievement@@PBD@Z
	?GetAchievementList@GameAPI@@QAE?AV?$vector@PAVIAchievement@@V?$allocator@PAVIAchievement@@@std@@@std@@XZ = gamelogic_original.?GetAchievementList@GameAPI@@QAE?AV?$vector@PAVIAchievement@@V?$allocator@PAVIAchievement@@@std@@@std@@XZ
	?GetAchievements@GameAPI@@QAEPAVIAchievementList@@XZ = gamelogic_original.?GetAchievements@GameAPI@@QAEPAVIAchievementList@@XZ
	?GetCharacterId@GameAPI@@QAEHXZ = gamelogic_original.?GetCharacterId@GameAPI@@QAEHXZ
	?GetFastTravelDestination@GameAPI@@QAEPAVFastTravelDestination@@ABV?$basic_string@DU?$char_traits@D@std@@V?$allocator@D@2@@std@@@Z = gamelogic_original.?GetFastTravelDestination@GameAPI@@QAEPAVFastTravelDestination@@ABV?$basic_string@DU?$char_traits@D@std@@V?$allocator@D@2@@std@@@Z
	?GetGameAPIObject@@YAPAVGameAPI@@XZ = gamelogic_original.?GetGameAPIObject@@YAPAVGameAPI@@XZ
	?GetGameServer@GameAPI@@QAEPAVGameServerConnection@@XZ = gamelogic_original.?GetGameServer@GameAPI@@QAEPAVGameServerConnection@@XZ
	?GetGoldenEggCount@GameAPI@@QAEIXZ = gamelogic_original.?GetGoldenEggCount@GameAPI@@QAEIXZ
	?GetGoldenEggList@GameAPI@@QAE?AV?$vector@PAVItemPickup@@V?$allocator@PAVItemPickup@@@std@@@std@@XZ = gamelogic_original.?GetGoldenEggList@GameAPI@@QAE?AV?$vector@PAVItemPickup@@V?$allocator@PAVItemPickup@@@std@@@std@@XZ
	?GetItemByName@GameAPI@@QAEPAVIItem@@PBD@Z = gamelogic_original.?GetItemByName@GameAPI@@QAEPAVIItem@@PBD@Z
	?GetLootTier@GameAPI@@QAEPAVLootTier@@I@Z = gamelogic_original.?GetLootTier@GameAPI@@QAEPAVLootTier@@I@Z
	?GetMasterServer@GameAPI@@QAEPAVMasterServerConnection@@XZ = gamelogic_original.?GetMasterServer@GameAPI@@QAEPAVMasterServerConnection@@XZ
	?GetNamedLocationPoint@GameAPI@@QAE_NABV?$basic_string@DU?$char_traits@D@std@@V?$allocator@D@2@@std@@AAULocationAndRotation@@@Z = gamelogic_original.?GetNamedLocationPoint@GameAPI@@QAE_NABV?$basic_string@DU?$char_traits@D@std@@V?$allocator@D@2@@std@@AAULocationAndRotation@@@Z
	?GetNamedLocationPointList@GameAPI@@QAE?AV?$vector@ULocationAndRotation@@V?$allocator@ULocationAndRotation@@@std@@@std@@PBD@Z = gamelogic_original.?GetNamedLocationPointList@GameAPI@@QAE?AV?$vector@ULocationAndRotation@@V?$allocator@ULocationAndRotation@@@std@@@std@@PBD@Z
	?GetQuestByName@GameAPI@@QAEPAVIQuest@@PBD@Z = gamelogic_original.?GetQuestByName@GameAPI@@QAEPAVIQuest@@PBD@Z
	?GetSpawnPoints@GameAPI@@QAE?AV?$vector@ULocationAndRotation@@V?$allocator@ULocationAndRotation@@@std@@@std@@PBD@Z = gamelogic_original.?GetSpawnPoints@GameAPI@@QAE?AV?$vector@ULocationAndRotation@@V?$allocator@ULocationAndRotation@@@std@@@std@@PBD@Z
	?GetTeamHash@GameAPI@@QAEPBDXZ = gamelogic_original.?GetTeamHash@GameAPI@@QAEPBDXZ
	?GetTeamName@GameAPI@@QAEPBDXZ = gamelogic_original.?GetTeamName@GameAPI@@QAEPBDXZ
	?GetTeamPlayerCount@GameAPI@@QAEHXZ = gamelogic_original.?GetTeamPlayerCount@GameAPI@@QAEHXZ
	?GetTeammates@GameAPI@@QAEXXZ = gamelogic_original.?GetTeammates@GameAPI@@QAEXXZ
	?GetTotalPlayerCount@GameAPI@@QAEHXZ = gamelogic_original.?GetTotalPlayerCount@GameAPI@@QAEHXZ
	?GetUserId@GameAPI@@QAEHXZ = gamelogic_original.?GetUserId@GameAPI@@QAEHXZ
	?GetUserNameW@GameAPI@@QAEPBDXZ = gamelogic_original.?GetUserNameW@GameAPI@@QAEPBDXZ
	?GiveAll@GameAPI@@QAEXPAVIPlayer@@@Z = gamelogic_original.?GiveAll@GameAPI@@QAEXPAVIPlayer@@@Z
	?HasActorFactory@GameAPI@@QAE_NABV?$basic_string@DU?$char_traits@D@std@@V?$allocator@D@2@@std@@@Z = gamelogic_original.?HasActorFactory@GameAPI@@QAE_NABV?$basic_string@DU?$char_traits@D@std@@V?$allocator@D@2@@std@@@Z
	?HideCountdown@IPlayer@@QAEXXZ = gamelogic_original.?HideCountdown@IPlayer@@QAEXXZ
	?InitClient@GameAPI@@QAEXPAVILocalPlayer@@@Z = gamelogic_original.?InitClient@GameAPI@@QAEXPAVILocalPlayer@@@Z
	?InitLocal@GameAPI@@QAEXPAVILocalPlayer@@@Z = gamelogic_original.?InitLocal@GameAPI@@QAEXPAVILocalPlayer@@@Z
	?InitObjects@GameAPI@@AAEXXZ = gamelogic_original.?InitObjects@GameAPI@@AAEXXZ
	?InitServer@GameAPI@@QAEXPBDGH0G000@Z = gamelogic_original.?InitServer@GameAPI@@QAEXPBDGH0G000@Z
	?IsAuthority@GameAPI@@QAE_NXZ = gamelogic_original.?IsAuthority@GameAPI@@QAE_NXZ
	?IsConnectedToGameServer@GameAPI@@QAE_NXZ = gamelogic_original.?IsConnectedToGameServer@GameAPI@@QAE_NXZ
	?IsConnectedToMasterServer@GameAPI@@QAE_NXZ = gamelogic_original.?IsConnectedToMasterServer@GameAPI@@QAE_NXZ
	?IsDedicatedServer@GameAPI@@QAE_NXZ = gamelogic_original.?IsDedicatedServer@GameAPI@@QAE_NXZ
	?IsTransitioningToNewServer@GameAPI@@QAE_NXZ = gamelogic_original.?IsTransitioningToNewServer@GameAPI@@QAE_NXZ
	?JoinGameServer@GameAPI@@QAEXH_N@Z = gamelogic_original.?JoinGameServer@GameAPI@@QAEXH_N@Z
	?Log@GameAPI@@QAAXPBDZZ = gamelogic_original.?Log@GameAPI@@QAAXPBDZZ
	?Login@GameAPI@@QAEXPBD0@Z = gamelogic_original.?Login@GameAPI@@QAEXPBD0@Z
	?Process@GameAPI@@QAEXABV?$function@$$A6AXXZ@std@@@Z = gamelogic_original.?Process@GameAPI@@QAEXABV?$function@$$A6AXXZ@std@@@Z
	?Random@@YAHH@Z = gamelogic_original.?Random@@YAHH@Z
	?Random@@YAHHH@Z = gamelogic_original.?Random@@YAHHH@Z
	?RandomFloat@@YAMMM@Z = gamelogic_original.?RandomFloat@@YAMMM@Z
	?Register@GameAPI@@QAEXPBD00@Z = gamelogic_original.?Register@GameAPI@@QAEXPBD00@Z
	?Release@IPlayer@@QAEXXZ = gamelogic_original.?Release@IPlayer@@QAEXXZ
	?SetGameAPIObject@@YAXPAVGameAPI@@@Z = gamelogic_original.?SetGameAPIObject@@YAXPAVGameAPI@@@Z
	?Shutdown@GameAPI@@QAEXXZ = gamelogic_original.?Shutdown@GameAPI@@QAEXXZ
	?StartServerListener@GameAPI@@AAEXABUServerInfo@@@Z = gamelogic_original.?StartServerListener@GameAPI@@AAEXABUServerInfo@@@Z
	?SubmitAnswer@GameAPI@@QAEXPBD0@Z = gamelogic_original.?SubmitAnswer@GameAPI@@QAEXPBD0@Z
	?Tick@GameAPI@@QAEXM@Z = gamelogic_original.?Tick@GameAPI@@QAEXM@Z
	?TransitionToNewGameServer@GameAPI@@QAEXXZ = gamelogic_original.?TransitionToNewGameServer@GameAPI@@QAEXXZ
	?UpdatePlayerCounts@GameAPI@@QAEXXZ = gamelogic_original.?UpdatePlayerCounts@GameAPI@@QAEXXZ